target datalayout = "e-m:e-p270:32:32-p271:32:32-p272:64:64-i64:64-i128:128-f80:128-n8:16:32:64-S128"
target triple = "x86_64-pc-linux-gnu"

%class.b3Generic6DofConstraint = type { %class.b3TypedConstraint, %class.b3Transform, %class.b3Transform, %class.b3TranslationalLimitMotor, [3 x %class.b3RotationalLimitMotor], %class.b3Transform, %class.b3Transform, %class.b3Vector3, [3 x %class.b3Vector3], %class.b3Vector3, float, float, float, i8, %class.b3Vector3, i8, i8, i32, [8 x i8] }
%class.b3TypedConstraint = type { ptr, %struct.b3TypedObject, i32, %union.anon, float, i8, i8, i32, i32, i32, float, float, ptr }
%struct.b3TypedObject = type { i32 }
%union.anon = type { ptr }
%class.b3TranslationalLimitMotor = type { %class.b3Vector3, %class.b3Vector3, %class.b3Vector3, %class.b3Vector3, %class.b3Vector3, %class.b3Vector3, %class.b3Vector3, %class.b3Vector3, %class.b3Vector3, %class.b3Vector3, float, float, float, [3 x i8], [3 x i32], [4 x i8] }
%class.b3RotationalLimitMotor = type { float, float, float, float, float, float, float, float, float, float, float, i8, float, float, i32, float }
%class.b3Transform = type { %class.b3Matrix3x3, %class.b3Vector3 }
%class.b3Matrix3x3 = type { [3 x %class.b3Vector3] }
%class.b3Vector3 = type { %union.anon.0 }
%union.anon.0 = type { [4 x float] }

; Function Attrs: inlinehint mustprogress nounwind uwtable
define linkonce_odr dso_local noundef nonnull align 16 dereferenceable(48) ptr @_ZN11b3Matrix3x3aSERKS_(ptr noundef nonnull align 16 dereferenceable(48) %0, ptr noundef nonnull align 16 dereferenceable(48) %1) #5 comdat align 2 {
  %3 = alloca ptr, align 8
  %4 = alloca ptr, align 8
  store ptr %0, ptr %3, align 8, !tbaa !63
  store ptr %1, ptr %4, align 8, !tbaa !63
  %5 = load ptr, ptr %3, align 8
  %6 = load ptr, ptr %4, align 8, !tbaa !63
  %7 = getelementptr inbounds nuw %class.b3Matrix3x3, ptr %6, i32 0, i32 0
  %8 = getelementptr inbounds [3 x %class.b3Vector3], ptr %7, i64 0, i64 0
  %9 = getelementptr inbounds nuw %class.b3Matrix3x3, ptr %5, i32 0, i32 0
  %10 = getelementptr inbounds [3 x %class.b3Vector3], ptr %9, i64 0, i64 0
  call void @llvm.memcpy.p0.p0.i64(ptr align 16 %10, ptr align 16 %8, i64 16, i1 false), !tbaa.struct !33
  %11 = load ptr, ptr %4, align 8, !tbaa !63
  %12 = getelementptr inbounds nuw %class.b3Matrix3x3, ptr %11, i32 0, i32 0
  %13 = getelementptr inbounds [3 x %class.b3Vector3], ptr %12, i64 0, i64 1
  %14 = getelementptr inbounds nuw %class.b3Matrix3x3, ptr %5, i32 0, i32 0
  %15 = getelementptr inbounds [3 x %class.b3Vector3], ptr %14, i64 0, i64 1
  call void @llvm.memcpy.p0.p0.i64(ptr align 16 %15, ptr align 16 %13, i64 16, i1 false), !tbaa.struct !33
  %16 = load ptr, ptr %4, align 8, !tbaa !63
  %17 = getelementptr inbounds nuw %class.b3Matrix3x3, ptr %16, i32 0, i32 0
  %18 = getelementptr inbounds [3 x %class.b3Vector3], ptr %17, i64 0, i64 2
  %19 = getelementptr inbounds nuw %class.b3Matrix3x3, ptr %5, i32 0, i32 0
  %20 = getelementptr inbounds [3 x %class.b3Vector3], ptr %19, i64 0, i64 2
  call void @llvm.memcpy.p0.p0.i64(ptr align 16 %20, ptr align 16 %18, i64 16, i1 false), !tbaa.struct !33
  ret ptr %5
}

; Function Attrs: inlinehint mustprogress uwtable
define linkonce_odr dso_local noundef nonnull align 16 dereferenceable(64) ptr @_ZN11b3TransformaSERKS_(ptr noundef nonnull align 16 dereferenceable(64) %0, ptr noundef nonnull align 16 dereferenceable(64) %1) #2 comdat align 2 {
  %3 = alloca ptr, align 8
  %4 = alloca ptr, align 8
  store ptr %0, ptr %3, align 8, !tbaa !11
  store ptr %1, ptr %4, align 8, !tbaa !11
  %5 = load ptr, ptr %3, align 8
  %6 = load ptr, ptr %4, align 8, !tbaa !11
  %7 = getelementptr inbounds nuw %class.b3Transform, ptr %6, i32 0, i32 0
  %8 = getelementptr inbounds nuw %class.b3Transform, ptr %5, i32 0, i32 0
  %9 = call noundef nonnull align 16 dereferenceable(48) ptr @_ZN11b3Matrix3x3aSERKS_(ptr noundef nonnull align 16 dereferenceable(48) %8, ptr noundef nonnull align 16 dereferenceable(48) %7)
  %10 = load ptr, ptr %4, align 8, !tbaa !11
  %11 = getelementptr inbounds nuw %class.b3Transform, ptr %10, i32 0, i32 1
  %12 = getelementptr inbounds nuw %class.b3Transform, ptr %5, i32 0, i32 1
  call void @llvm.memcpy.p0.p0.i64(ptr align 16 %12, ptr align 16 %11, i64 16, i1 false), !tbaa.struct !33
  ret ptr %5
}

; Function Attrs: mustprogress uwtable
define dso_local void @_ZN23b3Generic6DofConstraint9setFramesERK11b3TransformS2_PK15b3RigidBodyData(ptr noundef nonnull align 16 dereferenceable(824) %0, ptr noundef nonnull align 16 dereferenceable(64) %1, ptr noundef nonnull align 16 dereferenceable(64) %2, ptr noundef %3) #0 align 2 {
  %5 = alloca ptr, align 8
  %6 = alloca ptr, align 8
  %7 = alloca ptr, align 8
  %8 = alloca ptr, align 8
  store ptr %0, ptr %5, align 8, !tbaa !4
  store ptr %1, ptr %6, align 8, !tbaa !11
  store ptr %2, ptr %7, align 8, !tbaa !11
  store ptr %3, ptr %8, align 8, !tbaa !15
  %9 = load ptr, ptr %5, align 8
  %10 = load ptr, ptr %6, align 8, !tbaa !11
  %11 = getelementptr inbounds nuw %class.b3Generic6DofConstraint, ptr %9, i32 0, i32 1
  %12 = call noundef nonnull align 16 dereferenceable(64) ptr @_ZN11b3TransformaSERKS_(ptr noundef nonnull align 16 dereferenceable(64) %11, ptr noundef nonnull align 16 dereferenceable(64) %10)
  %13 = load ptr, ptr %7, align 8, !tbaa !11
  %14 = getelementptr inbounds nuw %class.b3Generic6DofConstraint, ptr %9, i32 0, i32 2
  %15 = call noundef nonnull align 16 dereferenceable(64) ptr @_ZN11b3TransformaSERKS_(ptr noundef nonnull align 16 dereferenceable(64) %14, ptr noundef nonnull align 16 dereferenceable(64) %13)
  %16 = load ptr, ptr %8, align 8, !tbaa !15
  call void @_ZN23b3Generic6DofConstraint19calculateTransformsEPK15b3RigidBodyData(ptr noundef nonnull align 16 dereferenceable(824) %9, ptr noundef %16)
  ret void
}