; Function Attrs: mustprogress nofree nounwind memory(write, argmem: readwrite) uwtable
define dso_local void @_ZN23b3Generic6DofConstraint9setFramesERK11b3TransformS2_PK15b3RigidBodyData(ptr noundef nonnull align 16 captures(none) dereferenceable(824) initializes((64, 192), (576, 704), (768, 784)) %0, ptr noundef nonnull readonly align 16 captures(none) dereferenceable(64) %1, ptr noundef nonnull readonly align 16 captures(none) dereferenceable(64) %2, ptr noundef readonly captures(none) %3) local_unnamed_addr #2 align 2 {
  %5 = getelementptr inbounds nuw i8, ptr %0, i64 64
  tail call void @llvm.memcpy.p0.p0.i64(ptr noundef nonnull align 16 dereferenceable(64) %5, ptr noundef nonnull align 16 dereferenceable(64) %1, i64 16, i1 false), !tbaa.struct !7
  %6 = getelementptr inbounds nuw i8, ptr %1, i64 16
  %7 = getelementptr inbounds nuw i8, ptr %0, i64 80
  tail call void @llvm.memcpy.p0.p0.i64(ptr noundef nonnull align 16 dereferenceable(16) %7, ptr noundef nonnull align 16 dereferenceable(16) %6, i64 16, i1 false), !tbaa.struct !7
  %8 = getelementptr inbounds nuw i8, ptr %1, i64 32
  %9 = getelementptr inbounds nuw i8, ptr %0, i64 96
  tail call void @llvm.memcpy.p0.p0.i64(ptr noundef nonnull align 16 dereferenceable(16) %9, ptr noundef nonnull align 16 dereferenceable(16) %8, i64 16, i1 false), !tbaa.struct !7
  %10 = getelementptr inbounds nuw i8, ptr %1, i64 48
  %11 = getelementptr inbounds nuw i8, ptr %0, i64 112
  tail call void @llvm.memcpy.p0.p0.i64(ptr noundef nonnull align 16 dereferenceable(16) %11, ptr noundef nonnull align 16 dereferenceable(16) %10, i64 16, i1 false), !tbaa.struct !7
  %12 = getelementptr inbounds nuw i8, ptr %0, i64 128
  tail call void @llvm.memcpy.p0.p0.i64(ptr noundef nonnull align 16 dereferenceable(64) %12, ptr noundef nonnull align 16 dereferenceable(64) %2, i64 16, i1 false), !tbaa.struct !7
  %13 = getelementptr inbounds nuw i8, ptr %2, i64 16
  %14 = getelementptr inbounds nuw i8, ptr %0, i64 144
  tail call void @llvm.memcpy.p0.p0.i64(ptr noundef nonnull align 16 dereferenceable(16) %14, ptr noundef nonnull align 16 dereferenceable(16) %13, i64 16, i1 false), !tbaa.struct !7
  %15 = getelementptr inbounds nuw i8, ptr %2, i64 32
  %16 = getelementptr inbounds nuw i8, ptr %0, i64 160
  tail call void @llvm.memcpy.p0.p0.i64(ptr noundef nonnull align 16 dereferenceable(16) %16, ptr noundef nonnull align 16 dereferenceable(16) %15, i64 16, i1 false), !tbaa.struct !7
  %17 = getelementptr inbounds nuw i8, ptr %2, i64 48
  %18 = getelementptr inbounds nuw i8, ptr %0, i64 176
  tail call void @llvm.memcpy.p0.p0.i64(ptr noundef nonnull align 16 dereferenceable(16) %18, ptr noundef nonnull align 16 dereferenceable(16) %17, i64 16, i1 false), !tbaa.struct !7
  tail call void @_ZN23b3Generic6DofConstraint19calculateTransformsEPK15b3RigidBodyData(ptr noundef nonnull align 16 dereferenceable(824) %0, ptr noundef %3)
  ret void
}